target datalayout = "e-m:e-p270:32:32-p271:32:32-p272:64:64-i64:64-i128:128-f80:128-n8:16:32:64-S128"
target triple = "x86_64-pc-linux-gnu"

@hf_ipmi_se_1d_channel = internal global i32 0, align 4

; Function Attrs: null_pointer_is_valid sspstrong uwtable
define internal zeroext i1 @ssi_1d_3(ptr noundef %0, ptr noundef %1, ptr noundef %2, i32 noundef %3, i32 noundef %4, i32 noundef %5) #0 {
  %7 = alloca i1, align 1
  %8 = alloca ptr, align 8
  %9 = alloca ptr, align 8
  %10 = alloca ptr, align 8
  %11 = alloca i32, align 4
  %12 = alloca i32, align 4
  %13 = alloca i32, align 4
  %14 = alloca [240 x i8], align 16
  %15 = alloca i32, align 4
  store ptr %0, ptr %8, align 8
  store ptr %1, ptr %9, align 8
  store ptr %2, ptr %10, align 8
  store i32 %3, ptr %11, align 4
  store i32 %4, ptr %12, align 4
  store i32 %5, ptr %13, align 4
  call void @llvm.lifetime.start.p0(i64 240, ptr %14) #5
  %16 = getelementptr inbounds [240 x i8], ptr %14, i64 0, i64 0
  %17 = load i32, ptr %13, align 4
  call void @ipmi_fmt_channel(ptr noundef %16, i32 noundef %17)
  %18 = load i32, ptr %11, align 4
  %19 = icmp eq i32 %18, 3
  br i1 %19, label %20, label %28

20:                                               ; preds = %6
  %21 = load i32, ptr %12, align 4
  %22 = icmp eq i32 %21, 7
  br i1 %22, label %23, label %28

23:                                               ; preds = %20
  %24 = load ptr, ptr %8, align 8
  %25 = load i32, ptr @hf_ipmi_se_1d_channel, align 4
  %26 = load ptr, ptr %9, align 8
  %27 = call ptr @proto_tree_add_item(ptr noundef %24, i32 noundef %25, ptr noundef %26, i32 noundef 0, i32 noundef 1, i32 noundef -2147483648)
  store i1 true, ptr %7, align 1
  store i32 1, ptr %15, align 4
  br label %29

28:                                               ; preds = %20, %6
  store i1 false, ptr %7, align 1
  store i32 1, ptr %15, align 4
  br label %29

29:                                               ; preds = %28, %23
  call void @llvm.lifetime.end.p0(i64 240, ptr %14) #5
  %30 = load i1, ptr %7, align 1
  ret i1 %30
}