; Function Attrs: null_pointer_is_valid sspstrong uwtable
define internal noundef zeroext i1 @ssi_1d_3(ptr noundef %0, ptr noundef %1, ptr readnone captures(none) %2, i32 noundef %3, i32 noundef %4, i32 noundef %5) #0 {
  %7 = alloca [240 x i8], align 16
  call void @llvm.lifetime.start.p0(i64 240, ptr nonnull %7) #4
  call void @ipmi_fmt_channel(ptr noundef nonnull %7, i32 noundef %5)
  %8 = icmp eq i32 %3, 3
  %9 = icmp eq i32 %4, 7
  %or.cond = and i1 %8, %9
  br i1 %or.cond, label %10, label %13

10:                                               ; preds = %6
  %11 = load i32, ptr @hf_ipmi_se_1d_channel, align 4
  %12 = call ptr @proto_tree_add_item(ptr noundef %0, i32 noundef %11, ptr noundef %1, i32 noundef 0, i32 noundef 1, i32 noundef -2147483648)
  br label %13

13:                                               ; preds = %6, %10
  call void @llvm.lifetime.end.p0(i64 240, ptr nonnull %7) #4
  ret i1 %or.cond
}